target datalayout = "e-m:e-p270:32:32-p271:32:32-p272:64:64-i64:64-i128:128-f80:128-n8:16:32:64-S128"
target triple = "x86_64-pc-linux-gnu"

%struct.expert_field = type { i32, i32 }

@hf_nan_map_id = internal global i32 0, align 4
@hf_nan_type_status = internal global i32 0, align 4
@hf_nan_reason_code = internal global i32 0, align 4
@hf_nan_dialog_tokens = internal global i32 0, align 4
@hf_nan_time_bitmap = internal global i32 0, align 4
@hf_nan_time_bitmap_len = internal global i32 0, align 4
@hf_nan_time_bitmap_ctrl = internal global i32 0, align 4
@hf_nan_attr_ndl_control = internal global i32 0, align 4
@hf_nan_attr_ndl_reserved_peer_id = internal global i32 0, align 4
@hf_nan_attr_ndl_max_idle = internal global i32 0, align 4
@ett_type_status = internal global i32 0, align 4
@ett_time_bitmap_ctrl = internal global i32 0, align 4
@ett_ndl_control = internal global i32 0, align 4
@ett_ndl_schedule_entries = internal global i32 0, align 4
@ei_nan_elem_len_invalid = internal global %struct.expert_field zeroinitializer, align 4
@time_bitmap_ctr_fields = internal constant [4 x ptr] [ptr @hf_nan_time_bitmap_ctrl_bit_duration, ptr @hf_nan_time_bitmap_ctrl_period, ptr @hf_nan_time_bitmap_ctrl_start_offset, ptr null], align 16
@dissect_attr_ndl.ndl_type_status_fields = internal constant [3 x ptr] [ptr @hf_nan_attr_ndl_type, ptr @hf_nan_status_1, ptr null], align 16
@.str.741 = private unnamed_addr constant [30 x i8] c"Immutable Schedule entry list\00", align 1

; Function Attrs: null_pointer_is_valid sspstrong uwtable
define internal void @dissect_attr_ndl(ptr noundef %0, ptr noundef %1, i32 noundef %2, i16 noundef zeroext %3, ptr noundef %4) #0 {
  %6 = alloca ptr, align 8
  %7 = alloca ptr, align 8
  %8 = alloca i32, align 4
  %9 = alloca i16, align 2
  %10 = alloca ptr, align 8
  %11 = alloca i32, align 4
  %12 = alloca i32, align 4
  %13 = alloca i8, align 1
  %14 = alloca i8, align 1
  %15 = alloca i8, align 1
  %16 = alloca ptr, align 8
  %17 = alloca ptr, align 8
  %18 = alloca i32, align 4
  store ptr %0, ptr %6, align 8
  store ptr %1, ptr %7, align 8
  store i32 %2, ptr %8, align 4
  store i16 %3, ptr %9, align 2
  store ptr %4, ptr %10, align 8
  %19 = load i16, ptr %9, align 2
  %20 = zext i16 %19 to i32
  %21 = icmp slt i32 %20, 4
  br i1 %21, label %22, label %26

22:                                               ; preds = %5
  %23 = load ptr, ptr %10, align 8
  %24 = load ptr, ptr %6, align 8
  %25 = call ptr @expert_add_info(ptr noundef %23, ptr noundef %24, ptr noundef @ei_nan_elem_len_invalid)
  br label %162

26:                                               ; preds = %5
  call void @llvm.lifetime.start.p0(i64 4, ptr %11) #5
  %27 = load i32, ptr %8, align 4
  %28 = add i32 %27, 3
  store i32 %28, ptr %11, align 4
  call void @llvm.lifetime.start.p0(i64 4, ptr %12) #5
  store i32 0, ptr %12, align 4
  %29 = load ptr, ptr %6, align 8
  %30 = load i32, ptr @hf_nan_dialog_tokens, align 4
  %31 = load ptr, ptr %7, align 8
  %32 = load i32, ptr %11, align 4
  %33 = call ptr @proto_tree_add_item(ptr noundef %29, i32 noundef %30, ptr noundef %31, i32 noundef %32, i32 noundef 1, i32 noundef 0)
  %34 = load i32, ptr %11, align 4
  %35 = add i32 %34, 1
  store i32 %35, ptr %11, align 4
  %36 = load ptr, ptr %6, align 8
  %37 = load ptr, ptr %7, align 8
  %38 = load i32, ptr %11, align 4
  %39 = load i32, ptr @hf_nan_type_status, align 4
  %40 = load i32, ptr @ett_type_status, align 4
  %41 = call ptr @proto_tree_add_bitmask(ptr noundef %36, ptr noundef %37, i32 noundef %38, i32 noundef %39, i32 noundef %40, ptr noundef @dissect_attr_ndl.ndl_type_status_fields, i32 noundef -2147483648)
  %42 = load i32, ptr %11, align 4
  %43 = add i32 %42, 1
  store i32 %43, ptr %11, align 4
  %44 = load ptr, ptr %6, align 8
  %45 = load i32, ptr @hf_nan_reason_code, align 4
  %46 = load ptr, ptr %7, align 8
  %47 = load i32, ptr %11, align 4
  %48 = call ptr @proto_tree_add_item(ptr noundef %44, i32 noundef %45, ptr noundef %46, i32 noundef %47, i32 noundef 1, i32 noundef 0)
  %49 = load i32, ptr %11, align 4
  %50 = add i32 %49, 1
  store i32 %50, ptr %11, align 4
  %51 = load ptr, ptr %6, align 8
  %52 = load ptr, ptr %7, align 8
  %53 = load i32, ptr %11, align 4
  %54 = load i32, ptr @hf_nan_attr_ndl_control, align 4
  %55 = load i32, ptr @ett_ndl_control, align 4
  %56 = call ptr @proto_tree_add_bitmask(ptr noundef %51, ptr noundef %52, i32 noundef %53, i32 noundef %54, i32 noundef %55, ptr noundef @dissect_attr_ndl.ndl_control_fields, i32 noundef -2147483648)
  call void @llvm.lifetime.start.p0(i64 1, ptr %13) #5
  %57 = load ptr, ptr %7, align 8
  %58 = load i32, ptr %11, align 4
  %59 = mul i32 %58, 8
  %60 = add i32 %59, 7
  %61 = call zeroext i8 @tvb_get_bits8(ptr noundef %57, i32 noundef %60, i32 noundef 1)
  store i8 %61, ptr %13, align 1
  call void @llvm.lifetime.start.p0(i64 1, ptr %14) #5
  %62 = load ptr, ptr %7, align 8
  %63 = load i32, ptr %11, align 4
  %64 = mul i32 %63, 8
  %65 = add i32 %64, 6
  %66 = call zeroext i8 @tvb_get_bits8(ptr noundef %62, i32 noundef %65, i32 noundef 1)
  store i8 %66, ptr %14, align 1
  call void @llvm.lifetime.start.p0(i64 1, ptr %15) #5
  %67 = load ptr, ptr %7, align 8
  %68 = load i32, ptr %11, align 4
  %69 = mul i32 %68, 8
  %70 = add i32 %69, 3
  %71 = call zeroext i8 @tvb_get_bits8(ptr noundef %67, i32 noundef %70, i32 noundef 1)
  store i8 %71, ptr %15, align 1
  %72 = load i32, ptr %11, align 4
  %73 = add i32 %72, 1
  store i32 %73, ptr %11, align 4
  %74 = load i32, ptr %12, align 4
  %75 = add i32 %74, 4
  store i32 %75, ptr %12, align 4
  %76 = load i8, ptr %13, align 1
  %77 = icmp ne i8 %76, 0
  br i1 %77, label %78, label %88

78:                                               ; preds = %26
  %79 = load ptr, ptr %6, align 8
  %80 = load i32, ptr @hf_nan_attr_ndl_reserved_peer_id, align 4
  %81 = load ptr, ptr %7, align 8
  %82 = load i32, ptr %11, align 4
  %83 = call ptr @proto_tree_add_item(ptr noundef %79, i32 noundef %80, ptr noundef %81, i32 noundef %82, i32 noundef 1, i32 noundef 0)
  %84 = load i32, ptr %11, align 4
  %85 = add i32 %84, 1
  store i32 %85, ptr %11, align 4
  %86 = load i32, ptr %12, align 4
  %87 = add i32 %86, 1
  store i32 %87, ptr %12, align 4
  br label %88

88:                                               ; preds = %78, %26
  %89 = load i8, ptr %15, align 1
  %90 = icmp ne i8 %89, 0
  br i1 %90, label %91, label %101

91:                                               ; preds = %88
  %92 = load ptr, ptr %6, align 8
  %93 = load i32, ptr @hf_nan_attr_ndl_max_idle, align 4
  %94 = load ptr, ptr %7, align 8
  %95 = load i32, ptr %11, align 4
  %96 = call ptr @proto_tree_add_item(ptr noundef %92, i32 noundef %93, ptr noundef %94, i32 noundef %95, i32 noundef 2, i32 noundef -2147483648)
  %97 = load i32, ptr %11, align 4
  %98 = add i32 %97, 2
  store i32 %98, ptr %11, align 4
  %99 = load i32, ptr %12, align 4
  %100 = add i32 %99, 2
  store i32 %100, ptr %12, align 4
  br label %101

101:                                              ; preds = %91, %88
  %102 = load i8, ptr %14, align 1
  %103 = icmp ne i8 %102, 0
  br i1 %103, label %104, label %161

104:                                              ; preds = %101
  call void @llvm.lifetime.start.p0(i64 8, ptr %16) #5
  store ptr @.str.741, ptr %16, align 8
  call void @llvm.lifetime.start.p0(i64 8, ptr %17) #5
  %105 = load ptr, ptr %6, align 8
  %106 = load ptr, ptr %7, align 8
  %107 = load i32, ptr %11, align 4
  %108 = load i16, ptr %9, align 2
  %109 = zext i16 %108 to i32
  %110 = load i32, ptr %12, align 4
  %111 = sub i32 %109, %110
  %112 = load i32, ptr @ett_ndl_schedule_entries, align 4
  %113 = load ptr, ptr %16, align 8
  %114 = call ptr @proto_tree_add_subtree(ptr noundef %105, ptr noundef %106, i32 noundef %107, i32 noundef %111, i32 noundef %112, ptr noundef null, ptr noundef %113)
  store ptr %114, ptr %17, align 8
  br label %115

115:                                              ; preds = %120, %104
  %116 = load i32, ptr %12, align 4
  %117 = load i16, ptr %9, align 2
  %118 = zext i16 %117 to i32
  %119 = icmp ult i32 %116, %118
  br i1 %119, label %120, label %160

120:                                              ; preds = %115
  %121 = load ptr, ptr %17, align 8
  %122 = load i32, ptr @hf_nan_map_id, align 4
  %123 = load ptr, ptr %7, align 8
  %124 = load i32, ptr %11, align 4
  %125 = call ptr @proto_tree_add_item(ptr noundef %121, i32 noundef %122, ptr noundef %123, i32 noundef %124, i32 noundef 1, i32 noundef 0)
  %126 = load i32, ptr %11, align 4
  %127 = add i32 %126, 1
  store i32 %127, ptr %11, align 4
  %128 = load ptr, ptr %17, align 8
  %129 = load ptr, ptr %7, align 8
  %130 = load i32, ptr %11, align 4
  %131 = load i32, ptr @hf_nan_time_bitmap_ctrl, align 4
  %132 = load i32, ptr @ett_time_bitmap_ctrl, align 4
  %133 = call ptr @proto_tree_add_bitmask(ptr noundef %128, ptr noundef %129, i32 noundef %130, i32 noundef %131, i32 noundef %132, ptr noundef @time_bitmap_ctr_fields, i32 noundef -2147483648)
  %134 = load i32, ptr %11, align 4
  %135 = add i32 %134, 2
  store i32 %135, ptr %11, align 4
  call void @llvm.lifetime.start.p0(i64 4, ptr %18) #5
  %136 = load ptr, ptr %7, align 8
  %137 = load i32, ptr %11, align 4
  %138 = call zeroext i8 @tvb_get_uint8(ptr noundef %136, i32 noundef %137)
  %139 = zext i8 %138 to i32
  store i32 %139, ptr %18, align 4
  %140 = load ptr, ptr %17, align 8
  %141 = load i32, ptr @hf_nan_time_bitmap_len, align 4
  %142 = load ptr, ptr %7, align 8
  %143 = load i32, ptr %11, align 4
  %144 = call ptr @proto_tree_add_item(ptr noundef %140, i32 noundef %141, ptr noundef %142, i32 noundef %143, i32 noundef 1, i32 noundef 0)
  %145 = load i32, ptr %11, align 4
  %146 = add i32 %145, 1
  store i32 %146, ptr %11, align 4
  %147 = load ptr, ptr %17, align 8
  %148 = load i32, ptr @hf_nan_time_bitmap, align 4
  %149 = load ptr, ptr %7, align 8
  %150 = load i32, ptr %11, align 4
  %151 = load i32, ptr %18, align 4
  %152 = call ptr @proto_tree_add_item(ptr noundef %147, i32 noundef %148, ptr noundef %149, i32 noundef %150, i32 noundef %151, i32 noundef 0)
  %153 = load i32, ptr %18, align 4
  %154 = load i32, ptr %11, align 4
  %155 = add i32 %154, %153
  store i32 %155, ptr %11, align 4
  %156 = load i32, ptr %18, align 4
  %157 = add i32 %156, 4
  %158 = load i32, ptr %12, align 4
  %159 = add i32 %158, %157
  store i32 %159, ptr %12, align 4
  call void @llvm.lifetime.end.p0(i64 4, ptr %18) #5
  br label %115, !llvm.loop !25

160:                                              ; preds = %115
  call void @llvm.lifetime.end.p0(i64 8, ptr %17) #5
  call void @llvm.lifetime.end.p0(i64 8, ptr %16) #5
  br label %161

161:                                              ; preds = %160, %101
  call void @llvm.lifetime.end.p0(i64 1, ptr %15) #5
  call void @llvm.lifetime.end.p0(i64 1, ptr %14) #5
  call void @llvm.lifetime.end.p0(i64 1, ptr %13) #5
  call void @llvm.lifetime.end.p0(i64 4, ptr %12) #5
  call void @llvm.lifetime.end.p0(i64 4, ptr %11) #5
  br label %162

162:                                              ; preds = %161, %22
  ret void
}