; Function Attrs: null_pointer_is_valid sspstrong uwtable
define internal fastcc void @dissect_attr_ndl(ptr noundef %0, ptr noundef %1, i32 noundef %2, i16 noundef zeroext %3, ptr noundef %4) unnamed_addr #0 {
  %6 = zext i16 %3 to i32
  %7 = icmp ult i16 %3, 4
  br i1 %7, label %8, label %10

8:                                                ; preds = %5
  %9 = tail call ptr @expert_add_info(ptr noundef %4, ptr noundef %0, ptr noundef nonnull @ei_nan_elem_len_invalid)
  br label %.loopexit

10:                                               ; preds = %5
  %11 = add i32 %2, 3
  %12 = load i32, ptr @hf_nan_dialog_tokens, align 4
  %13 = tail call ptr @proto_tree_add_item(ptr noundef %0, i32 noundef %12, ptr noundef %1, i32 noundef %11, i32 noundef 1, i32 noundef 0)
  %14 = add i32 %2, 4
  %15 = load i32, ptr @hf_nan_type_status, align 4
  %16 = load i32, ptr @ett_type_status, align 4
  %17 = tail call ptr @proto_tree_add_bitmask(ptr noundef %0, ptr noundef %1, i32 noundef %14, i32 noundef %15, i32 noundef %16, ptr noundef nonnull @dissect_attr_ndl.ndl_type_status_fields, i32 noundef -2147483648)
  %18 = add i32 %2, 5
  %19 = load i32, ptr @hf_nan_reason_code, align 4
  %20 = tail call ptr @proto_tree_add_item(ptr noundef %0, i32 noundef %19, ptr noundef %1, i32 noundef %18, i32 noundef 1, i32 noundef 0)
  %21 = add i32 %2, 6
  %22 = load i32, ptr @hf_nan_attr_ndl_control, align 4
  %23 = load i32, ptr @ett_ndl_control, align 4
  %24 = tail call ptr @proto_tree_add_bitmask(ptr noundef %0, ptr noundef %1, i32 noundef %21, i32 noundef %22, i32 noundef %23, ptr noundef nonnull @dissect_attr_ndl.ndl_control_fields, i32 noundef -2147483648)
  %25 = shl i32 %21, 3
  %26 = or disjoint i32 %25, 7
  %27 = tail call zeroext i8 @tvb_get_bits8(ptr noundef %1, i32 noundef %26, i32 noundef 1)
  %28 = or disjoint i32 %25, 6
  %29 = tail call zeroext i8 @tvb_get_bits8(ptr noundef %1, i32 noundef %28, i32 noundef 1)
  %30 = or disjoint i32 %25, 3
  %31 = tail call zeroext i8 @tvb_get_bits8(ptr noundef %1, i32 noundef %30, i32 noundef 1)
  %32 = add i32 %2, 7
  %.not = icmp eq i8 %27, 0
  br i1 %.not, label %37, label %33

33:                                               ; preds = %10
  %34 = load i32, ptr @hf_nan_attr_ndl_reserved_peer_id, align 4
  %35 = tail call ptr @proto_tree_add_item(ptr noundef %0, i32 noundef %34, ptr noundef %1, i32 noundef %32, i32 noundef 1, i32 noundef 0)
  %36 = add i32 %2, 8
  br label %37

37:                                               ; preds = %33, %10
  %.069 = phi i32 [ 5, %33 ], [ 4, %10 ]
  %.0 = phi i32 [ %36, %33 ], [ %32, %10 ]
  %.not73 = icmp eq i8 %31, 0
  br i1 %.not73, label %43, label %38

38:                                               ; preds = %37
  %39 = load i32, ptr @hf_nan_attr_ndl_max_idle, align 4
  %40 = tail call ptr @proto_tree_add_item(ptr noundef %0, i32 noundef %39, ptr noundef %1, i32 noundef %.0, i32 noundef 2, i32 noundef -2147483648)
  %41 = add i32 %.0, 2
  %42 = or disjoint i32 %.069, 2
  br label %43

43:                                               ; preds = %38, %37
  %.170 = phi i32 [ %42, %38 ], [ %.069, %37 ]
  %.1 = phi i32 [ %41, %38 ], [ %.0, %37 ]
  %.not74 = icmp eq i8 %29, 0
  br i1 %.not74, label %.loopexit, label %44

44:                                               ; preds = %43
  %45 = sub nsw i32 %6, %.170
  %46 = load i32, ptr @ett_ndl_schedule_entries, align 4
  %47 = tail call ptr @proto_tree_add_subtree(ptr noundef %0, ptr noundef %1, i32 noundef %.1, i32 noundef %45, i32 noundef %46, ptr noundef null, ptr noundef nonnull @.str.741)
  %48 = icmp samesign ult i32 %.170, %6
  br i1 %48, label %.lr.ph, label %.loopexit

.lr.ph:                                           ; preds = %44, %.lr.ph
  %.276 = phi i32 [ %63, %.lr.ph ], [ %.1, %44 ]
  %.27175 = phi i32 [ %65, %.lr.ph ], [ %.170, %44 ]
  %49 = load i32, ptr @hf_nan_map_id, align 4
  %50 = tail call ptr @proto_tree_add_item(ptr noundef %47, i32 noundef %49, ptr noundef %1, i32 noundef %.276, i32 noundef 1, i32 noundef 0)
  %51 = add i32 %.276, 1
  %52 = load i32, ptr @hf_nan_time_bitmap_ctrl, align 4
  %53 = load i32, ptr @ett_time_bitmap_ctrl, align 4
  %54 = tail call ptr @proto_tree_add_bitmask(ptr noundef %47, ptr noundef %1, i32 noundef %51, i32 noundef %52, i32 noundef %53, ptr noundef nonnull @time_bitmap_ctr_fields, i32 noundef -2147483648)
  %55 = add i32 %.276, 3
  %56 = tail call zeroext i8 @tvb_get_uint8(ptr noundef %1, i32 noundef %55)
  %57 = zext i8 %56 to i32
  %58 = load i32, ptr @hf_nan_time_bitmap_len, align 4
  %59 = tail call ptr @proto_tree_add_item(ptr noundef %47, i32 noundef %58, ptr noundef %1, i32 noundef %55, i32 noundef 1, i32 noundef 0)
  %60 = add i32 %.276, 4
  %61 = load i32, ptr @hf_nan_time_bitmap, align 4
  %62 = tail call ptr @proto_tree_add_item(ptr noundef %47, i32 noundef %61, ptr noundef %1, i32 noundef %60, i32 noundef %57, i32 noundef 0)
  %63 = add i32 %60, %57
  %64 = add nuw nsw i32 %.27175, 4
  %65 = add nuw nsw i32 %64, %57
  %66 = icmp ult i32 %65, %6
  br i1 %66, label %.lr.ph, label %.loopexit, !llvm.loop !25

.loopexit:                                        ; preds = %.lr.ph, %44, %43, %8
  ret void
}